target datalayout = "e-m:e-p270:32:32-p271:32:32-p272:64:64-i64:64-i128:128-f80:128-n8:16:32:64-S128"
target triple = "x86_64-pc-linux-gnu"

%struct.AddressSpace = type { %struct.rcu_head, ptr, ptr, ptr, i32, i32, ptr, %union.anon, %union.anon.0, i64, i64, %struct.QemuMutex, %struct.anon }
%struct.rcu_head = type { ptr, ptr }
%union.anon = type { %struct.QTailQLink }
%struct.QTailQLink = type { ptr, ptr }
%union.anon.0 = type { %struct.QTailQLink }
%struct.QemuMutex = type { %union.pthread_mutex_t, i8 }
%union.pthread_mutex_t = type { %struct.__pthread_mutex_s }
%struct.__pthread_mutex_s = type { i32, i32, i32, i32, i32, i16, i16, %struct.__pthread_internal_list }
%struct.__pthread_internal_list = type { ptr, ptr }
%struct.anon = type { ptr }
%struct.VirtIOPCIProxy = type { %struct.PCIDevice, %struct.MemoryRegion, %union.anon.7, %struct.MemoryRegion, %struct.MemoryRegion, %struct.AddressSpace, %struct.AddressSpace, i32, i32, i32, i32, i32, i32, i8, i8, i32, i16, i32, i32, i32, i32, [2 x i32], [1024 x %struct.VirtIOPCIQueue], ptr, i32, %struct.VirtioBusState }
%struct.PCIDevice = type { %struct.DeviceState, i8, i8, ptr, ptr, ptr, ptr, ptr, i32, %struct.PCIReqIDCache, [64 x i8], [7 x %struct.PCIIORegion], %struct.AddressSpace, %struct.MemoryRegion, %struct.MemoryRegion, ptr, ptr, [3 x ptr], i8, i8, i32, i8, i32, ptr, ptr, ptr, ptr, ptr, ptr, %struct.MemoryRegion, %struct.MemoryRegion, %struct.MemoryRegion, ptr, i8, i32, i8, %struct.PCIExpressDevice, ptr, ptr, i32, i8, %struct.MemoryRegion, i32, ptr, ptr, ptr, ptr, i16, %struct.DOECap, ptr, i32, i32 }
%struct.DeviceState = type { %struct.Object, ptr, ptr, i8, i8, i64, i32, i8, ptr, %struct.NamedGPIOListHead, %struct.NamedClockListHead, %struct.BusStateHead, i32, i32, i32, %struct.ResettableState, ptr, %struct.MemReentrancyGuard }
%struct.Object = type { ptr, ptr, ptr, i32, ptr }
%struct.NamedGPIOListHead = type { ptr }
%struct.NamedClockListHead = type { ptr }
%struct.BusStateHead = type { ptr }
%struct.ResettableState = type { i32, i8, i8 }
%struct.MemReentrancyGuard = type { i8 }
%struct.PCIReqIDCache = type { ptr, i32 }
%struct.PCIIORegion = type { i64, i64, i8, ptr, ptr }
%struct.PCIExpressDevice = type { i8, i8, i8, i16, %struct.PCIEAERLog, i16, i16, i16, %struct.PCIESriovPF, %struct.PCIESriovVF }
%struct.PCIEAERLog = type { i16, i16, ptr }
%struct.PCIESriovPF = type { i16, [7 x i8], ptr, ptr }
%struct.PCIESriovVF = type { ptr, i16 }
%struct.DOECap = type { ptr, i16, %struct.anon.4, %struct.anon.5, %struct.anon.6, ptr, ptr, i32, i32, i32, ptr, i16, i32 }
%struct.anon.4 = type { i8, i16 }
%struct.anon.5 = type { i8, i8, i8 }
%struct.anon.6 = type { i8, i8, i8, i8 }
%union.anon.7 = type { %struct.anon.8 }
%struct.anon.8 = type { %struct.VirtIOPCIRegion, %struct.VirtIOPCIRegion, %struct.VirtIOPCIRegion, %struct.VirtIOPCIRegion, %struct.VirtIOPCIRegion }
%struct.VirtIOPCIRegion = type { %struct.MemoryRegion, i32, i32, i32 }
%struct.MemoryRegion = type { %struct.Object, i8, i8, i8, i8, i8, i8, i8, i8, i8, i8, ptr, ptr, ptr, ptr, ptr, ptr, i32, i128, i64, ptr, i64, i8, i8, i8, i8, ptr, i64, i32, %union.anon.1, %union.anon.2, %union.anon.3, ptr, i32, ptr, ptr, i8 }
%union.anon.1 = type { %struct.QTailQLink }
%union.anon.2 = type { %struct.QTailQLink }
%union.anon.3 = type { %struct.QTailQLink }
%struct.VirtIOPCIQueue = type { i16, i8, i8, [2 x i32], [2 x i32], [2 x i32] }
%struct.VirtioBusState = type { %struct.BusState, i8, i32 }
%struct.BusState = type { %struct.Object, ptr, ptr, ptr, i32, i8, i8, i32, %union.BusChildHead, %struct.BusStateEntry, %struct.ResettableState }
%union.BusChildHead = type { %struct.QTailQLink }
%struct.BusStateEntry = type { ptr, ptr }

@.str = private unnamed_addr constant [11 x i8] c"virtio-pci\00", align 1
@.str.15 = private unnamed_addr constant [109 x i8] c"/home/dtcxzyw/WorkSpace/Projects/compilers/llvm-opt-benchmark/bench/qemu/qemu/include/hw/virtio/virtio-pci.h\00", align 1
@__func__.VIRTIO_PCI = private unnamed_addr constant [11 x i8] c"VIRTIO_PCI\00", align 1

; Function Attrs: nounwind sspstrong uwtable
define internal void @virtio_pci_modern_io_region_unmap(ptr noundef %0, ptr noundef %1) #0 {
  %3 = alloca ptr, align 8
  %4 = alloca ptr, align 8
  store ptr %0, ptr %3, align 8
  store ptr %1, ptr %4, align 8
  %5 = load ptr, ptr %3, align 8
  %6 = getelementptr inbounds nuw %struct.VirtIOPCIProxy, ptr %5, i32 0, i32 4
  %7 = load ptr, ptr %4, align 8
  %8 = getelementptr inbounds nuw %struct.VirtIOPCIRegion, ptr %7, i32 0, i32 0
  call void @memory_region_del_subregion(ptr noundef %6, ptr noundef %8)
  ret void
}

; Function Attrs: nounwind sspstrong uwtable
define internal void @virtio_pci_modern_mem_region_unmap(ptr noundef %0, ptr noundef %1) #0 {
  %3 = alloca ptr, align 8
  %4 = alloca ptr, align 8
  store ptr %0, ptr %3, align 8
  store ptr %1, ptr %4, align 8
  %5 = load ptr, ptr %3, align 8
  %6 = getelementptr inbounds nuw %struct.VirtIOPCIProxy, ptr %5, i32 0, i32 3
  %7 = load ptr, ptr %4, align 8
  %8 = getelementptr inbounds nuw %struct.VirtIOPCIRegion, ptr %7, i32 0, i32 0
  call void @memory_region_del_subregion(ptr noundef %6, ptr noundef %8)
  ret void
}

; Function Attrs: nounwind sspstrong uwtable
define internal void @virtio_pci_stop_ioeventfd(ptr noundef %0) #0 {
  %2 = alloca ptr, align 8
  store ptr %0, ptr %2, align 8
  %3 = load ptr, ptr %2, align 8
  %4 = getelementptr inbounds nuw %struct.VirtIOPCIProxy, ptr %3, i32 0, i32 25
  call void @virtio_bus_stop_ioeventfd(ptr noundef %4)
  ret void
}

; Function Attrs: inlinehint nounwind sspstrong uwtable
define internal zeroext i1 @virtio_pci_modern(ptr noundef %0) #4 {
  %2 = alloca ptr, align 8
  store ptr %0, ptr %2, align 8
  %3 = load ptr, ptr %2, align 8
  %4 = getelementptr inbounds nuw %struct.VirtIOPCIProxy, ptr %3, i32 0, i32 13
  %5 = load i8, ptr %4, align 8, !range !7, !noundef !8
  %6 = trunc i8 %5 to i1
  %7 = xor i1 %6, true
  ret i1 %7
}

; Function Attrs: inlinehint nounwind sspstrong uwtable
define internal ptr @VIRTIO_PCI(ptr noundef %0) #4 {
  %2 = alloca ptr, align 8
  store ptr %0, ptr %2, align 8
  %3 = load ptr, ptr %2, align 8
  %4 = call ptr @object_dynamic_cast_assert(ptr noundef %3, ptr noundef @.str, ptr noundef @.str.15, i32 noundef 107, ptr noundef @__func__.VIRTIO_PCI)
  ret ptr %4
}

; Function Attrs: nounwind sspstrong uwtable
define internal void @virtio_pci_device_unplugged(ptr noundef %0) #0 {
  %2 = alloca ptr, align 8
  %3 = alloca ptr, align 8
  %4 = alloca i8, align 1
  %5 = alloca i8, align 1
  store ptr %0, ptr %2, align 8
  call void @llvm.lifetime.start.p0(i64 8, ptr %3) #13
  %6 = load ptr, ptr %2, align 8
  %7 = call ptr @VIRTIO_PCI(ptr noundef %6)
  store ptr %7, ptr %3, align 8
  call void @llvm.lifetime.start.p0(i64 1, ptr %4) #13
  %8 = load ptr, ptr %3, align 8
  %9 = call zeroext i1 @virtio_pci_modern(ptr noundef %8)
  %10 = zext i1 %9 to i8
  store i8 %10, ptr %4, align 1
  call void @llvm.lifetime.start.p0(i64 1, ptr %5) #13
  %11 = load ptr, ptr %3, align 8
  %12 = getelementptr inbounds nuw %struct.VirtIOPCIProxy, ptr %11, i32 0, i32 12
  %13 = load i32, ptr %12, align 4
  %14 = and i32 %13, 8
  %15 = icmp ne i32 %14, 0
  %16 = zext i1 %15 to i8
  store i8 %16, ptr %5, align 1
  %17 = load ptr, ptr %3, align 8
  call void @virtio_pci_stop_ioeventfd(ptr noundef %17)
  %18 = load i8, ptr %4, align 1, !range !7, !noundef !8
  %19 = trunc i8 %18 to i1
  br i1 %19, label %20, label %45

20:                                               ; preds = %1
  %21 = load ptr, ptr %3, align 8
  %22 = load ptr, ptr %3, align 8
  %23 = getelementptr inbounds nuw %struct.VirtIOPCIProxy, ptr %22, i32 0, i32 2
  %24 = getelementptr inbounds nuw %struct.anon.8, ptr %23, i32 0, i32 0
  call void @virtio_pci_modern_mem_region_unmap(ptr noundef %21, ptr noundef %24)
  %25 = load ptr, ptr %3, align 8
  %26 = load ptr, ptr %3, align 8
  %27 = getelementptr inbounds nuw %struct.VirtIOPCIProxy, ptr %26, i32 0, i32 2
  %28 = getelementptr inbounds nuw %struct.anon.8, ptr %27, i32 0, i32 1
  call void @virtio_pci_modern_mem_region_unmap(ptr noundef %25, ptr noundef %28)
  %29 = load ptr, ptr %3, align 8
  %30 = load ptr, ptr %3, align 8
  %31 = getelementptr inbounds nuw %struct.VirtIOPCIProxy, ptr %30, i32 0, i32 2
  %32 = getelementptr inbounds nuw %struct.anon.8, ptr %31, i32 0, i32 2
  call void @virtio_pci_modern_mem_region_unmap(ptr noundef %29, ptr noundef %32)
  %33 = load ptr, ptr %3, align 8
  %34 = load ptr, ptr %3, align 8
  %35 = getelementptr inbounds nuw %struct.VirtIOPCIProxy, ptr %34, i32 0, i32 2
  %36 = getelementptr inbounds nuw %struct.anon.8, ptr %35, i32 0, i32 3
  call void @virtio_pci_modern_mem_region_unmap(ptr noundef %33, ptr noundef %36)
  %37 = load i8, ptr %5, align 1, !range !7, !noundef !8
  %38 = trunc i8 %37 to i1
  br i1 %38, label %39, label %44

39:                                               ; preds = %20
  %40 = load ptr, ptr %3, align 8
  %41 = load ptr, ptr %3, align 8
  %42 = getelementptr inbounds nuw %struct.VirtIOPCIProxy, ptr %41, i32 0, i32 2
  %43 = getelementptr inbounds nuw %struct.anon.8, ptr %42, i32 0, i32 4
  call void @virtio_pci_modern_io_region_unmap(ptr noundef %40, ptr noundef %43)
  br label %44

44:                                               ; preds = %39, %20
  br label %45

45:                                               ; preds = %44, %1
  call void @llvm.lifetime.end.p0(i64 1, ptr %5) #13
  call void @llvm.lifetime.end.p0(i64 1, ptr %4) #13
  call void @llvm.lifetime.end.p0(i64 8, ptr %3) #13
  ret void
}