; Function Attrs: nounwind sspstrong uwtable
define internal void @virtio_pci_device_unplugged(ptr noundef %0) #0 {
  %2 = tail call ptr @object_dynamic_cast_assert(ptr noundef %0, ptr noundef nonnull @.str, ptr noundef nonnull @.str.15, i32 noundef 107, ptr noundef nonnull @__func__.VIRTIO_PCI) #15
  %3 = getelementptr i8, ptr %2, i64 5352
  %.val = load i8, ptr %3, align 8, !range !7, !noundef !6
  %4 = trunc nuw i8 %.val to i1
  %5 = getelementptr inbounds nuw i8, ptr %2, i64 5348
  %6 = load i32, ptr %5, align 4
  %7 = getelementptr inbounds nuw i8, ptr %2, i64 34080
  tail call void @virtio_bus_stop_ioeventfd(ptr noundef nonnull %7) #15
  br i1 %4, label %18, label %8

8:                                                ; preds = %1
  %9 = and i32 %6, 8
  %.not = icmp eq i32 %9, 0
  %10 = getelementptr inbounds nuw i8, ptr %2, i64 3024
  %11 = getelementptr inbounds nuw i8, ptr %2, i64 4464
  tail call void @memory_region_del_subregion(ptr noundef nonnull %11, ptr noundef nonnull %10) #15
  %12 = getelementptr inbounds nuw i8, ptr %2, i64 3312
  tail call void @memory_region_del_subregion(ptr noundef nonnull %11, ptr noundef nonnull %12) #15
  %13 = getelementptr inbounds nuw i8, ptr %2, i64 3600
  tail call void @memory_region_del_subregion(ptr noundef nonnull %11, ptr noundef nonnull %13) #15
  %14 = getelementptr inbounds nuw i8, ptr %2, i64 3888
  tail call void @memory_region_del_subregion(ptr noundef nonnull %11, ptr noundef nonnull %14) #15
  br i1 %.not, label %18, label %15

15:                                               ; preds = %8
  %16 = getelementptr inbounds nuw i8, ptr %2, i64 4176
  %17 = getelementptr inbounds nuw i8, ptr %2, i64 4736
  tail call void @memory_region_del_subregion(ptr noundef nonnull %17, ptr noundef nonnull %16) #15
  br label %18

18:                                               ; preds = %8, %15, %1
  ret void
}